target datalayout = "e-m:e-p270:32:32-p271:32:32-p272:64:64-i64:64-i128:128-f80:128-n8:16:32:64-S128"
target triple = "x86_64-pc-linux-gnu"

@.str.2076 = private unnamed_addr constant [3 x i8] c", \00", align 1
@.str.2077 = private unnamed_addr constant [1 x i8] zeroinitializer, align 1
@.str.2143 = private unnamed_addr constant [5 x i8] c"12.5\00", align 1
@.str.2144 = private unnamed_addr constant [11 x i8] c"%s25.78125\00", align 1
@.str.2145 = private unnamed_addr constant [6 x i8] c" Gbps\00", align 1
@.str.2146 = private unnamed_addr constant [16 x i8] c"No State Change\00", align 1

; Function Attrs: null_pointer_is_valid sspstrong uwtable
define internal void @cf_opa_mad_linkspeed(ptr noundef %0, i16 noundef zeroext %1) #0 {
  %3 = alloca ptr, align 8
  %4 = alloca i16, align 2
  %5 = alloca i32, align 4
  store ptr %0, ptr %3, align 8
  store i16 %1, ptr %4, align 2
  call void @llvm.lifetime.start.p0(i64 4, ptr %5) #7
  store i32 0, ptr %5, align 4
  %6 = load i16, ptr %4, align 2
  %7 = zext i16 %6 to i32
  %8 = and i32 %7, 1
  %9 = icmp ne i32 %8, 0
  br i1 %9, label %10, label %15

10:                                               ; preds = %2
  %11 = load ptr, ptr %3, align 8
  %12 = load ptr, ptr %3, align 8
  %13 = call i64 @llvm.objectsize.i64.p0(ptr %12, i1 false, i1 true, i1 true)
  %14 = call i32 (ptr, i64, i32, i64, ptr, ...) @__snprintf_chk(ptr noundef %11, i64 noundef 240, i32 noundef 2, i64 noundef %13, ptr noundef @.str.2143)
  store i32 %14, ptr %5, align 4
  br label %15

15:                                               ; preds = %10, %2
  %16 = load i16, ptr %4, align 2
  %17 = zext i16 %16 to i32
  %18 = and i32 %17, 2
  %19 = icmp ne i32 %18, 0
  br i1 %19, label %20, label %39

20:                                               ; preds = %15
  %21 = load ptr, ptr %3, align 8
  %22 = load i32, ptr %5, align 4
  %23 = sext i32 %22 to i64
  %24 = getelementptr i8, ptr %21, i64 %23
  %25 = load i32, ptr %5, align 4
  %26 = sub i32 240, %25
  %27 = sext i32 %26 to i64
  %28 = load ptr, ptr %3, align 8
  %29 = load i32, ptr %5, align 4
  %30 = sext i32 %29 to i64
  %31 = getelementptr i8, ptr %28, i64 %30
  %32 = call i64 @llvm.objectsize.i64.p0(ptr %31, i1 false, i1 true, i1 true)
  %33 = load i32, ptr %5, align 4
  %34 = icmp ne i32 %33, 0
  %35 = select i1 %34, ptr @.str.2076, ptr @.str.2077
  %36 = call i32 (ptr, i64, i32, i64, ptr, ...) @__snprintf_chk(ptr noundef %24, i64 noundef %27, i32 noundef 2, i64 noundef %32, ptr noundef @.str.2144, ptr noundef %35)
  %37 = load i32, ptr %5, align 4
  %38 = add i32 %37, %36
  store i32 %38, ptr %5, align 4
  br label %39

39:                                               ; preds = %20, %15
  %40 = load i32, ptr %5, align 4
  %41 = icmp ne i32 %40, 0
  br i1 %41, label %42, label %56

42:                                               ; preds = %39
  %43 = load ptr, ptr %3, align 8
  %44 = load i32, ptr %5, align 4
  %45 = sext i32 %44 to i64
  %46 = getelementptr i8, ptr %43, i64 %45
  %47 = load i32, ptr %5, align 4
  %48 = sub i32 240, %47
  %49 = sext i32 %48 to i64
  %50 = load ptr, ptr %3, align 8
  %51 = load i32, ptr %5, align 4
  %52 = sext i32 %51 to i64
  %53 = getelementptr i8, ptr %50, i64 %52
  %54 = call i64 @llvm.objectsize.i64.p0(ptr %53, i1 false, i1 true, i1 true)
  %55 = call i32 (ptr, i64, i32, i64, ptr, ...) @__snprintf_chk(ptr noundef %46, i64 noundef %49, i32 noundef 2, i64 noundef %54, ptr noundef @.str.2145)
  br label %61

56:                                               ; preds = %39
  %57 = load ptr, ptr %3, align 8
  %58 = load ptr, ptr %3, align 8
  %59 = call i64 @llvm.objectsize.i64.p0(ptr %58, i1 false, i1 true, i1 true)
  %60 = call i32 (ptr, i64, i32, i64, ptr, ...) @__snprintf_chk(ptr noundef %57, i64 noundef 240, i32 noundef 2, i64 noundef %59, ptr noundef @.str.2146)
  br label %61

61:                                               ; preds = %56, %42
  call void @llvm.lifetime.end.p0(i64 4, ptr %5) #7
  ret void
}