; Function Attrs: nofree null_pointer_is_valid sspstrong uwtable
define internal void @cf_opa_mad_linkspeed(ptr noundef %0, i16 noundef zeroext %1) #2 {
  %3 = zext i16 %1 to i32
  %4 = and i32 %3, 1
  %.not = icmp eq i32 %4, 0
  br i1 %.not, label %7, label %5

5:                                                ; preds = %2
  %6 = tail call i32 (ptr, i64, i32, i64, ptr, ...) @__snprintf_chk(ptr noundef %0, i64 noundef 240, i32 noundef 2, i64 noundef -1, ptr noundef nonnull @.str.2143)
  br label %7

7:                                                ; preds = %5, %2
  %.0 = phi i32 [ %6, %5 ], [ 0, %2 ]
  %8 = and i32 %3, 2
  %.not18 = icmp eq i32 %8, 0
  br i1 %.not18, label %17, label %9

9:                                                ; preds = %7
  %10 = sext i32 %.0 to i64
  %11 = getelementptr i8, ptr %0, i64 %10
  %12 = sub i32 240, %.0
  %13 = sext i32 %12 to i64
  %.not19 = icmp eq i32 %.0, 0
  %14 = select i1 %.not19, ptr @.str.2077, ptr @.str.2076
  %15 = tail call i32 (ptr, i64, i32, i64, ptr, ...) @__snprintf_chk(ptr noundef %11, i64 noundef %13, i32 noundef 2, i64 noundef -1, ptr noundef nonnull @.str.2144, ptr noundef nonnull %14)
  %16 = add i32 %15, %.0
  br label %17

17:                                               ; preds = %9, %7
  %.1 = phi i32 [ %16, %9 ], [ %.0, %7 ]
  %.not20 = icmp eq i32 %.1, 0
  br i1 %.not20, label %24, label %18

18:                                               ; preds = %17
  %19 = sext i32 %.1 to i64
  %20 = getelementptr i8, ptr %0, i64 %19
  %21 = sub i32 240, %.1
  %22 = sext i32 %21 to i64
  %23 = tail call i32 (ptr, i64, i32, i64, ptr, ...) @__snprintf_chk(ptr noundef %20, i64 noundef %22, i32 noundef 2, i64 noundef -1, ptr noundef nonnull @.str.2145)
  br label %26

24:                                               ; preds = %17
  %25 = tail call i32 (ptr, i64, i32, i64, ptr, ...) @__snprintf_chk(ptr noundef %0, i64 noundef 240, i32 noundef 2, i64 noundef -1, ptr noundef nonnull @.str.2146)
  br label %26

26:                                               ; preds = %24, %18
  ret void
}